; Function Attrs: nounwind uwtable
define ptr @l___private_Lean_Server_FileWorker_0__Lean_Server_FileWorker_reportSnapshots(ptr noundef %0, ptr noundef %1, ptr noundef %2, ptr noundef %3) local_unnamed_addr #0 {
  %5 = getelementptr inbounds nuw i8, ptr %0, i64 80
  %6 = load ptr, ptr %5, align 8, !tbaa !4
  %7 = ptrtoint ptr %6 to i64
  %8 = and i64 %7, 1
  %.not = icmp eq i64 %8, 0
  br i1 %.not, label %9, label %lean_inc.exit

9:                                                ; preds = %4
  %.val.i = load i32, ptr %6, align 4, !tbaa !10
  %10 = icmp sgt i32 %.val.i, 0
  br i1 %10, label %11, label %13, !prof !13

11:                                               ; preds = %9
  %12 = add nuw i32 %.val.i, 1
  store i32 %12, ptr %6, align 4, !tbaa !10
  br label %17

13:                                               ; preds = %9
  %.not.i25 = icmp eq i32 %.val.i, 0
  br i1 %.not.i25, label %17, label %14

14:                                               ; preds = %13
  tail call void @lean_inc_ref_cold(ptr noundef nonnull %6) #7
  br label %17

lean_inc.exit:                                    ; preds = %4
  %15 = load ptr, ptr @l___private_Lean_Server_FileWorker_0__Lean_Server_FileWorker_reportSnapshots___closed__1, align 8, !tbaa !4
  %16 = tail call ptr @l_Lean_Option_get___at_Lean_profiler_threshold_getSecs___spec__1(ptr noundef %6, ptr noundef %15) #7
  br label %lean_dec.exit22

17:                                               ; preds = %14, %13, %11
  %18 = load ptr, ptr @l___private_Lean_Server_FileWorker_0__Lean_Server_FileWorker_reportSnapshots___closed__1, align 8, !tbaa !4
  %19 = tail call ptr @l_Lean_Option_get___at_Lean_profiler_threshold_getSecs___spec__1(ptr noundef nonnull %6, ptr noundef %18) #7
  %20 = load i32, ptr %6, align 4, !tbaa !10
  %21 = icmp sgt i32 %20, 1
  br i1 %21, label %22, label %24, !prof !13

22:                                               ; preds = %17
  %23 = add nsw i32 %20, -1
  store i32 %23, ptr %6, align 4, !tbaa !10
  br label %lean_dec.exit22

24:                                               ; preds = %17
  %.not.i = icmp eq i32 %20, 0
  br i1 %.not.i, label %lean_dec.exit22, label %25

25:                                               ; preds = %24
  tail call void @lean_dec_ref_cold(ptr noundef nonnull %6) #7
  br label %lean_dec.exit22

lean_dec.exit22:                                  ; preds = %25, %24, %22, %lean_inc.exit
  %26 = phi ptr [ %16, %lean_inc.exit ], [ %19, %22 ], [ %19, %24 ], [ %19, %25 ]
  %27 = ptrtoint ptr %26 to i64
  %28 = and i64 %27, 1
  %.not.i26 = icmp eq i64 %28, 0
  br i1 %.not.i26, label %31, label %lean_uint32_of_nat.exit.thread

lean_uint32_of_nat.exit.thread:                   ; preds = %lean_dec.exit22
  %29 = lshr i64 %27, 1
  %30 = trunc i64 %29 to i32
  br label %lean_dec.exit

31:                                               ; preds = %lean_dec.exit22
  %32 = tail call i32 @lean_uint32_of_big_nat(ptr noundef %26) #7
  %33 = load i32, ptr %26, align 4, !tbaa !10
  %34 = icmp sgt i32 %33, 1
  br i1 %34, label %35, label %37, !prof !13

35:                                               ; preds = %31
  %36 = add nsw i32 %33, -1
  store i32 %36, ptr %26, align 4, !tbaa !10
  br label %lean_dec.exit

37:                                               ; preds = %31
  %.not.i23 = icmp eq i32 %33, 0
  br i1 %.not.i23, label %lean_dec.exit, label %38

38:                                               ; preds = %37
  tail call void @lean_dec_ref_cold(ptr noundef nonnull %26) #7
  br label %lean_dec.exit

lean_dec.exit:                                    ; preds = %38, %37, %35, %lean_uint32_of_nat.exit.thread
  %39 = phi i32 [ %30, %lean_uint32_of_nat.exit.thread ], [ %32, %35 ], [ %32, %37 ], [ %32, %38 ]
  tail call void @lean_inc_heartbeat() #7
  %40 = tail call noalias ptr @mi_malloc_small(i64 noundef 32) #7
  %41 = icmp eq ptr %40, null
  br i1 %41, label %42, label %lean_alloc_closure.exit

42:                                               ; preds = %lean_dec.exit
  tail call void @lean_internal_panic_out_of_memory() #8
  unreachable

lean_alloc_closure.exit:                          ; preds = %lean_dec.exit
  %43 = zext i32 %39 to i64
  %44 = shl nuw nsw i64 %43, 1
  %45 = or disjoint i64 %44, 1
  %46 = inttoptr i64 %45 to ptr
  %47 = getelementptr inbounds nuw i8, ptr %40, i64 4
  store i32 1, ptr %40, align 4, !tbaa !10
  store i32 -184549344, ptr %47, align 4
  %48 = getelementptr inbounds nuw i8, ptr %40, i64 8
  store ptr @l_IO_sleep___boxed, ptr %48, align 8, !tbaa !4
  %49 = getelementptr inbounds nuw i8, ptr %40, i64 16
  store i16 2, ptr %49, align 8, !tbaa !15
  %50 = getelementptr inbounds nuw i8, ptr %40, i64 18
  store i16 1, ptr %50, align 2, !tbaa !15
  %51 = getelementptr inbounds nuw i8, ptr %40, i64 24
  store ptr %46, ptr %51, align 8, !tbaa !4
  tail call void @lean_inc_heartbeat() #7
  %52 = tail call noalias ptr @mi_malloc_small(i64 noundef 48) #7
  %53 = icmp eq ptr %52, null
  br i1 %53, label %54, label %lean_alloc_closure.exit27

54:                                               ; preds = %lean_alloc_closure.exit
  tail call void @lean_internal_panic_out_of_memory() #8
  unreachable

lean_alloc_closure.exit27:                        ; preds = %lean_alloc_closure.exit
  %55 = getelementptr inbounds nuw i8, ptr %52, i64 4
  store i32 1, ptr %52, align 4, !tbaa !10
  store i32 -184549328, ptr %55, align 4
  %56 = getelementptr inbounds nuw i8, ptr %52, i64 8
  store ptr @l___private_Lean_Server_FileWorker_0__Lean_Server_FileWorker_reportSnapshots___lambda__5___boxed, ptr %56, align 8, !tbaa !4
  %57 = getelementptr inbounds nuw i8, ptr %52, i64 16
  store i16 5, ptr %57, align 8, !tbaa !15
  %58 = getelementptr inbounds nuw i8, ptr %52, i64 18
  store i16 3, ptr %58, align 2, !tbaa !15
  %59 = getelementptr inbounds nuw i8, ptr %52, i64 24
  store ptr %1, ptr %59, align 8, !tbaa !4
  %60 = getelementptr inbounds nuw i8, ptr %52, i64 32
  store ptr %0, ptr %60, align 8, !tbaa !4
  %61 = getelementptr inbounds nuw i8, ptr %52, i64 40
  store ptr %2, ptr %61, align 8, !tbaa !4
  tail call void @lean_inc_heartbeat() #7
  %62 = tail call noalias ptr @mi_malloc_small(i64 noundef 40) #7
  %63 = icmp eq ptr %62, null
  br i1 %63, label %64, label %lean_alloc_closure.exit28

64:                                               ; preds = %lean_alloc_closure.exit27
  tail call void @lean_internal_panic_out_of_memory() #8
  unreachable

lean_alloc_closure.exit28:                        ; preds = %lean_alloc_closure.exit27
  %65 = getelementptr inbounds nuw i8, ptr %62, i64 4
  store i32 1, ptr %62, align 4, !tbaa !10
  store i32 -184549336, ptr %65, align 4
  %66 = getelementptr inbounds nuw i8, ptr %62, i64 8
  store ptr @l_EStateM_bind___rarg, ptr %66, align 8, !tbaa !4
  %67 = getelementptr inbounds nuw i8, ptr %62, i64 16
  store i16 3, ptr %67, align 8, !tbaa !15
  %68 = getelementptr inbounds nuw i8, ptr %62, i64 18
  store i16 2, ptr %68, align 2, !tbaa !15
  %69 = getelementptr inbounds nuw i8, ptr %62, i64 24
  store ptr %40, ptr %69, align 8, !tbaa !4
  %70 = getelementptr inbounds nuw i8, ptr %62, i64 32
  store ptr %52, ptr %70, align 8, !tbaa !4
  %71 = tail call ptr @l_Lean_Server_ServerTask_BaseIO_asTask___rarg(ptr noundef nonnull %62, ptr noundef %3) #7
  ret ptr %71
}